; Function Attrs: mustprogress nounwind uwtable
define internal void @_ZZN3nix22Config_addSetting_Test8TestBodyEvENK11TestSetting9to_stringB5cxx11Ev(ptr dead_on_unwind noalias writable sret(%"class.std::__cxx11::basic_string") align 8 %0, ptr nocapture nonnull readnone align 8 %1) unnamed_addr #7 align 2 personality ptr @__gxx_personality_v0 {
  %3 = alloca %"class.std::allocator", align 1
  call void @llvm.lifetime.start.p0(i64 1, ptr nonnull %3)
  %4 = getelementptr inbounds i8, ptr %0, i64 16
  call void @_ZNSaIcEC1Ev(ptr noundef nonnull align 1 dereferenceable(1) %3) #26
  call void @_ZNSaIcEC2ERKS_(ptr noundef nonnull align 1 dereferenceable(1) %0, ptr noundef nonnull align 1 dereferenceable(1) %3) #26
  store ptr %4, ptr %0, align 8
  call void @_ZNSaIcED1Ev(ptr noundef nonnull align 1 dereferenceable(1) %3) #26
  %5 = getelementptr inbounds i8, ptr %0, i64 8
  store i64 0, ptr %5, align 8
  %6 = load ptr, ptr %0, align 8
  store i8 0, ptr %6, align 1
  call void @llvm.lifetime.end.p0(i64 1, ptr nonnull %3)
  ret void
}